; ModuleID = '7/92.c'
source_filename = "7/92.c"
target datalayout = "e-m:e-p270:32:32-p271:32:32-p272:64:64-i64:64-f80:128-n8:16:32:64-S128"
target triple = "x86_64-pc-linux-gnu"

@.str = private unnamed_addr constant [3 x i8] c"%s\00", align 1

; Function Attrs: noinline nounwind uwtable
define dso_local i32 @main(i32 %0, i8** %1) #0 {
  %3 = alloca i32, align 4
  %4 = alloca i32, align 4
  %5 = alloca i8**, align 8
  %6 = alloca [260 x i8], align 16
  %7 = alloca [260 x i8], align 16
  %8 = alloca [260 x i8], align 16
  %9 = alloca i32, align 4
  %10 = alloca i32, align 4
  %11 = alloca i32, align 4
  %12 = alloca i32, align 4
  %13 = alloca i32, align 4
  %14 = alloca i32, align 4
  store i32 0, i32* %3, align 4
  store i32 %0, i32* %4, align 4
  store i8** %1, i8*** %5, align 8
  store i32 0, i32* %14, align 4
  %15 = getelementptr inbounds [260 x i8], [260 x i8]* %6, i64 0, i64 0
  %16 = call i32 (i8*, ...) bitcast (i32 (...)* @gets to i32 (i8*, ...)*)(i8* %15)
  %17 = getelementptr inbounds [260 x i8], [260 x i8]* %7, i64 0, i64 0
  %18 = call i32 (i8*, ...) bitcast (i32 (...)* @gets to i32 (i8*, ...)*)(i8* %17)
  %19 = getelementptr inbounds [260 x i8], [260 x i8]* %8, i64 0, i64 0
  %20 = call i32 (i8*, ...) bitcast (i32 (...)* @gets to i32 (i8*, ...)*)(i8* %19)
  %21 = getelementptr inbounds [260 x i8], [260 x i8]* %6, i64 0, i64 0
  %22 = call i64 @strlen(i8* %21) #3
  %23 = trunc i64 %22 to i32
  store i32 %23, i32* %10, align 4
  %24 = getelementptr inbounds [260 x i8], [260 x i8]* %7, i64 0, i64 0
  %25 = call i64 @strlen(i8* %24) #3
  %26 = trunc i64 %25 to i32
  store i32 %26, i32* %11, align 4
  store i32 0, i32* %9, align 4
  br label %27

27:                                               ; preds = %96, %2
  %28 = load i32, i32* %9, align 4
  %29 = load i32, i32* %10, align 4
  %30 = load i32, i32* %11, align 4
  %31 = sub nsw i32 %29, %30
  %32 = add nsw i32 %31, 1
  %33 = icmp slt i32 %28, %32
  br i1 %33, label %34, label %99

34:                                               ; preds = %27
  store i32 0, i32* %13, align 4
  store i32 0, i32* %12, align 4
  br label %35

35:                                               ; preds = %57, %34
  %36 = load i32, i32* %12, align 4
  %37 = load i32, i32* %11, align 4
  %38 = icmp slt i32 %36, %37
  br i1 %38, label %39, label %60

39:                                               ; preds = %35
  %40 = load i32, i32* %9, align 4
  %41 = load i32, i32* %12, align 4
  %42 = add nsw i32 %40, %41
  %43 = sext i32 %42 to i64
  %44 = getelementptr inbounds [260 x i8], [260 x i8]* %6, i64 0, i64 %43
  %45 = load i8, i8* %44, align 1
  %46 = sext i8 %45 to i32
  %47 = load i32, i32* %12, align 4
  %48 = sext i32 %47 to i64
  %49 = getelementptr inbounds [260 x i8], [260 x i8]* %7, i64 0, i64 %48
  %50 = load i8, i8* %49, align 1
  %51 = sext i8 %50 to i32
  %52 = icmp eq i32 %46, %51
  br i1 %52, label %53, label %56

53:                                               ; preds = %39
  %54 = load i32, i32* %13, align 4
  %55 = add nsw i32 %54, 1
  store i32 %55, i32* %13, align 4
  br label %56

56:                                               ; preds = %53, %39
  br label %57

57:                                               ; preds = %56
  %58 = load i32, i32* %12, align 4
  %59 = add nsw i32 %58, 1
  store i32 %59, i32* %12, align 4
  br label %35

60:                                               ; preds = %35
  %61 = load i32, i32* %13, align 4
  %62 = load i32, i32* %11, align 4
  %63 = icmp eq i32 %61, %62
  br i1 %63, label %64, label %95

64:                                               ; preds = %60
  store i32 0, i32* %12, align 4
  br label %65

65:                                               ; preds = %86, %64
  %66 = load i32, i32* %12, align 4
  %67 = load i32, i32* %11, align 4
  %68 = icmp slt i32 %66, %67
  br i1 %68, label %69, label %89

69:                                               ; preds = %65
  %70 = load i32, i32* %12, align 4
  %71 = sext i32 %70 to i64
  %72 = getelementptr inbounds [260 x i8], [260 x i8]* %8, i64 0, i64 %71
  %73 = load i8, i8* %72, align 1
  %74 = load i32, i32* %9, align 4
  %75 = load i32, i32* %12, align 4
  %76 = add nsw i32 %74, %75
  %77 = sext i32 %76 to i64
  %78 = getelementptr inbounds [260 x i8], [260 x i8]* %6, i64 0, i64 %77
  store i8 %73, i8* %78, align 1
  %79 = load i32, i32* %14, align 4
  %80 = add nsw i32 %79, 1
  store i32 %80, i32* %14, align 4
  %81 = load i32, i32* %14, align 4
  %82 = load i32, i32* %11, align 4
  %83 = icmp eq i32 %81, %82
  br i1 %83, label %84, label %85

84:                                               ; preds = %69
  br label %89

85:                                               ; preds = %69
  br label %86

86:                                               ; preds = %85
  %87 = load i32, i32* %12, align 4
  %88 = add nsw i32 %87, 1
  store i32 %88, i32* %12, align 4
  br label %65

89:                                               ; preds = %84, %65
  %90 = load i32, i32* %14, align 4
  %91 = load i32, i32* %11, align 4
  %92 = icmp eq i32 %90, %91
  br i1 %92, label %93, label %94

93:                                               ; preds = %89
  br label %99

94:                                               ; preds = %89
  br label %95

95:                                               ; preds = %94, %60
  br label %96

96:                                               ; preds = %95
  %97 = load i32, i32* %9, align 4
  %98 = add nsw i32 %97, 1
  store i32 %98, i32* %9, align 4
  br label %27

99:                                               ; preds = %93, %27
  %100 = getelementptr inbounds [260 x i8], [260 x i8]* %6, i64 0, i64 0
  %101 = call i32 (i8*, ...) @printf(i8* getelementptr inbounds ([3 x i8], [3 x i8]* @.str, i64 0, i64 0), i8* %100)
  ret i32 0
}

declare dso_local i32 @gets(...) #1

; Function Attrs: nounwind readonly
declare dso_local i64 @strlen(i8*) #2

declare dso_local i32 @printf(i8*, ...) #1


!llvm.module.flags = !{!0}
!llvm.ident = !{!1}

!0 = !{i32 1, !"wchar_size", i32 4}
!1 = !{!"clang version 10.0.0-4ubuntu1 "}
